target datalayout = "e-m:e-p270:32:32-p271:32:32-p272:64:64-i64:64-i128:128-f80:128-n8:16:32:64-S128"
target triple = "x86_64-pc-linux-gnu"

; Function Attrs: inlinehint nounwind uwtable
define internal i32 @CompareWords(i64 noundef %0, i64 noundef %1) #5 {
  %3 = alloca i32, align 4
  %4 = alloca i64, align 8
  %5 = alloca i64, align 8
  store i64 %0, ptr %4, align 8, !tbaa !18
  store i64 %1, ptr %5, align 8, !tbaa !18
  %6 = load i64, ptr %4, align 8, !tbaa !18
  %7 = load i64, ptr %5, align 8, !tbaa !18
  %8 = icmp ugt i64 %6, %7
  br i1 %8, label %9, label %10

9:                                                ; preds = %2
  store i32 1, ptr %3, align 4
  br label %16

10:                                               ; preds = %2
  %11 = load i64, ptr %4, align 8, !tbaa !18
  %12 = load i64, ptr %5, align 8, !tbaa !18
  %13 = icmp ult i64 %11, %12
  br i1 %13, label %14, label %15

14:                                               ; preds = %10
  store i32 -1, ptr %3, align 4
  br label %16

15:                                               ; preds = %10
  store i32 0, ptr %3, align 4
  br label %16

16:                                               ; preds = %15, %14, %9
  %17 = load i32, ptr %3, align 4
  ret i32 %17
}

; Function Attrs: nounwind uwtable
define i32 @minTemp3_fast_iVar5(ptr noundef %0, i32 noundef %1, i32 noundef %2, i32 noundef %3, i32 noundef %4, ptr noundef %5) #0 {
  %7 = alloca i32, align 4
  %8 = alloca ptr, align 8
  %9 = alloca i32, align 4
  %10 = alloca i32, align 4
  %11 = alloca i32, align 4
  %12 = alloca i32, align 4
  %13 = alloca ptr, align 8
  %14 = alloca i32, align 4
  %15 = alloca i32, align 4
  %16 = alloca i32, align 4
  store ptr %0, ptr %8, align 8, !tbaa !12
  store i32 %1, ptr %9, align 4, !tbaa !8
  store i32 %2, ptr %10, align 4, !tbaa !8
  store i32 %3, ptr %11, align 4, !tbaa !8
  store i32 %4, ptr %12, align 4, !tbaa !8
  store ptr %5, ptr %13, align 8, !tbaa !12
  call void @llvm.lifetime.start.p0(i64 4, ptr %14) #7
  call void @llvm.lifetime.start.p0(i64 4, ptr %15) #7
  %17 = load i32, ptr %9, align 4, !tbaa !8
  %18 = sub nsw i32 %17, 1
  store i32 %18, ptr %14, align 4, !tbaa !8
  br label %19

19:                                               ; preds = %55, %6
  %20 = load i32, ptr %14, align 4, !tbaa !8
  %21 = load i32, ptr %10, align 4, !tbaa !8
  %22 = icmp sge i32 %20, %21
  br i1 %22, label %23, label %58

23:                                               ; preds = %19
  %24 = load ptr, ptr %8, align 8, !tbaa !12
  %25 = load i32, ptr %14, align 4, !tbaa !8
  %26 = load i32, ptr %11, align 4, !tbaa !8
  %27 = sub nsw i32 %25, %26
  %28 = sext i32 %27 to i64
  %29 = getelementptr inbounds i32, ptr %24, i64 %28
  %30 = load i32, ptr %29, align 4, !tbaa !8
  %31 = zext i32 %30 to i64
  %32 = load ptr, ptr %8, align 8, !tbaa !12
  %33 = load i32, ptr %14, align 4, !tbaa !8
  %34 = load i32, ptr %12, align 4, !tbaa !8
  %35 = sub nsw i32 %33, %34
  %36 = sext i32 %35 to i64
  %37 = getelementptr inbounds i32, ptr %32, i64 %36
  %38 = load i32, ptr %37, align 4, !tbaa !8
  %39 = zext i32 %38 to i64
  %40 = call i32 @CompareWords(i64 noundef %31, i64 noundef %39)
  store i32 %40, ptr %15, align 4, !tbaa !8
  %41 = load i32, ptr %15, align 4, !tbaa !8
  %42 = icmp eq i32 %41, 0
  br i1 %42, label %43, label %44

43:                                               ; preds = %23
  br label %55

44:                                               ; preds = %23
  %45 = load i32, ptr %15, align 4, !tbaa !8
  %46 = icmp eq i32 %45, -1
  br i1 %46, label %47, label %51

47:                                               ; preds = %44
  %48 = load i32, ptr %14, align 4, !tbaa !8
  %49 = add nsw i32 %48, 1
  %50 = load ptr, ptr %13, align 8, !tbaa !12
  store i32 %49, ptr %50, align 4, !tbaa !8
  store i32 0, ptr %7, align 4
  store i32 1, ptr %16, align 4
  br label %60

51:                                               ; preds = %44
  %52 = load i32, ptr %14, align 4, !tbaa !8
  %53 = add nsw i32 %52, 1
  %54 = load ptr, ptr %13, align 8, !tbaa !12
  store i32 %53, ptr %54, align 4, !tbaa !8
  store i32 1, ptr %7, align 4
  store i32 1, ptr %16, align 4
  br label %60

55:                                               ; preds = %43
  %56 = load i32, ptr %14, align 4, !tbaa !8
  %57 = sub nsw i32 %56, 4
  store i32 %57, ptr %14, align 4, !tbaa !8
  br label %19, !llvm.loop !29

58:                                               ; preds = %19
  %59 = load ptr, ptr %13, align 8, !tbaa !12
  store i32 0, ptr %59, align 4, !tbaa !8
  store i32 0, ptr %7, align 4
  store i32 1, ptr %16, align 4
  br label %60

60:                                               ; preds = %58, %51, %47
  call void @llvm.lifetime.end.p0(i64 4, ptr %15) #7
  call void @llvm.lifetime.end.p0(i64 4, ptr %14) #7
  %61 = load i32, ptr %7, align 4
  ret i32 %61
}